; Function Attrs: nounwind uwtable
define dso_local i64 @stringTypeDatum(ptr noundef %0, ptr noundef %1, i32 noundef %2) local_unnamed_addr #0 {
  %4 = getelementptr i8, ptr %0, i64 16
  %.val = load ptr, ptr %4, align 8
  %5 = getelementptr inbounds nuw i8, ptr %.val, i64 22
  %6 = load i8, ptr %5, align 2
  %7 = zext i8 %6 to i64
  %8 = getelementptr inbounds nuw i8, ptr %.val, i64 %7
  %9 = getelementptr inbounds nuw i8, ptr %8, i64 100
  %10 = load i32, ptr %9, align 4
  %11 = tail call i32 @getTypeIOParam(ptr noundef %0) #7
  %12 = tail call i64 @OidInputFunctionCall(i32 noundef %10, ptr noundef %1, i32 noundef %11, i32 noundef %2) #7
  ret i64 %12
}